Certificate:
    Data:
        Version: 3 (0x2)
        Serial Number: 15452152608126502998 (0xd67112ed96818856)
    Signature Algorithm: sha256WithRSAEncryption
        Issuer: C=cn, ST=cn, O=cn, OU=cn, CN=localhost/emailAddress=zhangdongpei@flyaudio.cn
        Validity
            Not Before: Aug 28 02:06:35 2018 GMT
            Not After : Aug 27 02:06:35 2021 GMT
        Subject: C=cn, ST=cn, O=cn, OU=cn, CN=localhost/emailAddress=zhangdongpei@flyaudio.cn
        Subject Public Key Info:
            Public Key Algorithm: rsaEncryption
                Public-Key: (2048 bit)
                Modulus:
                    00:bd:c7:cb:0b:fc:b1:91:40:a5:77:db:21:ed:e4:
                    cb:59:81:87:d6:fb:1f:7a:cd:d6:20:fb:85:d5:8e:
                    75:a5:88:ed:0f:79:54:61:17:e7:e7:2c:49:6b:a9:
                    0d:32:f0:f9:ec:6e:7d:12:1e:71:4c:e3:7b:c5:f4:
                    f4:95:59:80:27:0f:1d:51:04:1c:1c:dc:2f:15:ff:
                    17:6c:27:03:ff:5f:c2:7a:6f:e9:d7:90:ee:93:ce:
                    89:ea:cb:df:65:59:ae:33:27:ad:5b:2e:19:41:76:
                    a1:dd:42:62:f2:87:55:f2:c1:cb:fa:d7:a4:9e:03:
                    06:7c:9f:db:8b:3d:02:30:0f:31:c4:11:63:4c:a9:
                    ea:52:24:ea:ce:6b:3a:42:af:9d:4f:60:68:bf:86:
                    9a:de:ff:ba:f9:7a:07:5f:db:a5:b0:1a:7a:df:73:
                    e2:69:9a:00:5c:0b:5a:72:31:50:29:d0:4c:e0:7e:
                    fb:1d:52:a0:b6:1d:77:41:12:7d:81:25:26:7e:31:
                    59:75:ee:3a:98:75:be:6d:82:08:e7:d0:cf:95:29:
                    74:1d:49:51:4d:b9:ba:82:b2:56:90:d9:85:87:4a:
                    b8:69:d8:a1:ba:16:5a:69:ea:01:c2:c5:b0:94:04:
                    51:fa:77:30:17:34:c5:d2:19:dd:a2:6a:eb:0f:59:
                    a9:17
                Exponent: 65537 (0x10001)
        X509v3 extensions:
            X509v3 Subject Key Identifier: 
                A7:75:D1:0B:CC:80:08:94:A5:84:D5:C6:0F:C4:8D:A4:81:04:8B:4E
            X509v3 Authority Key Identifier: 
                keyid:A7:75:D1:0B:CC:80:08:94:A5:84:D5:C6:0F:C4:8D:A4:81:04:8B:4E

            X509v3 Basic Constraints: 
                CA:TRUE
    Signature Algorithm: sha256WithRSAEncryption
         19:da:2b:c2:7a:d1:3c:4e:ce:96:46:33:71:10:e7:60:e3:bb:
         f3:f4:9a:a1:34:b0:96:d0:96:bd:17:69:8b:df:d0:45:c2:5e:
         59:ea:34:89:76:9b:15:b3:88:a9:30:82:97:f2:48:1f:1f:41:
         a2:77:bc:e3:ce:63:44:30:1a:99:1d:26:a6:64:eb:e9:75:2e:
         26:ef:6b:de:3f:ac:3e:70:a5:41:2e:3c:a7:6d:17:9e:3f:57:
         b1:83:37:ee:11:8a:41:f6:24:8d:1b:b0:80:48:16:f6:ec:ef:
         8b:80:a3:87:35:3b:3e:5a:8c:c2:d2:d2:ae:17:f9:e5:de:4b:
         b6:e4:c9:db:4b:31:db:f9:df:6c:65:87:be:61:4b:10:b1:4c:
         04:00:23:32:3c:60:d6:3d:6b:94:77:ff:57:b8:0f:b8:a0:70:
         2b:e0:0e:4d:62:17:fb:9d:fd:24:7f:d6:43:6d:b6:54:7c:95:
         6a:cd:77:e1:c4:4f:33:55:a8:92:31:f3:a3:49:96:0f:36:6a:
         d1:f1:67:dc:bf:70:de:b6:3f:38:4a:b8:2b:51:cb:92:41:69:
         82:1c:be:2d:88:59:42:64:9c:05:13:0b:bb:17:72:4d:59:1e:
         99:d4:7d:86:49:1c:2f:79:dd:40:1c:fe:25:57:5a:45:66:86:
         89:a9:91:eb
-----BEGIN CERTIFICATE-----
MIIDtTCCAp2gAwIBAgIJANZxEu2WgYhWMA0GCSqGSIb3DQEBCwUAMHExCzAJBgNV
BAYTAmNuMQswCQYDVQQIDAJjbjELMAkGA1UECgwCY24xCzAJBgNVBAsMAmNuMRIw
EAYDVQQDDAlsb2NhbGhvc3QxJzAlBgkqhkiG9w0BCQEWGHpoYW5nZG9uZ3BlaUBm
bHlhdWRpby5jbjAeFw0xODA4MjgwMjA2MzVaFw0yMTA4MjcwMjA2MzVaMHExCzAJ
BgNVBAYTAmNuMQswCQYDVQQIDAJjbjELMAkGA1UECgwCY24xCzAJBgNVBAsMAmNu
MRIwEAYDVQQDDAlsb2NhbGhvc3QxJzAlBgkqhkiG9w0BCQEWGHpoYW5nZG9uZ3Bl
aUBmbHlhdWRpby5jbjCCASIwDQYJKoZIhvcNAQEBBQADggEPADCCAQoCggEBAL3H
ywv8sZFApXfbIe3ky1mBh9b7H3rN1iD7hdWOdaWI7Q95VGEX5+csSWupDTLw+exu
fRIecUzje8X09JVZgCcPHVEEHBzcLxX/F2wnA/9fwnpv6deQ7pPOierL32VZrjMn
rVsuGUF2od1CYvKHVfLBy/rXpJ4DBnyf24s9AjAPMcQRY0yp6lIk6s5rOkKvnU9g
aL+Gmt7/uvl6B1/bpbAaet9z4mmaAFwLWnIxUCnQTOB++x1SoLYdd0ESfYElJn4x
WXXuOph1vm2CCOfQz5UpdB1JUU25uoKyVpDZhYdKuGnYoboWWmnqAcLFsJQEUfp3
MBc0xdIZ3aJq6w9ZqRcCAwEAAaNQME4wHQYDVR0OBBYEFKd10QvMgAiUpYTVxg/E
jaSBBItOMB8GA1UdIwQYMBaAFKd10QvMgAiUpYTVxg/EjaSBBItOMAwGA1UdEwQF
MAMBAf8wDQYJKoZIhvcNAQELBQADggEBABnaK8J60TxOzpZGM3EQ52Dju/P0mqE0
sJbQlr0XaYvf0EXCXlnqNIl2mxWziKkwgpfySB8fQaJ3vOPOY0QwGpkdJqZk6+l1
Libva94/rD5wpUEuPKdtF54/V7GDN+4RikH2JI0bsIBIFvbs74uAo4c1Oz5ajMLS
0q4X+eXeS7bkydtLMdv532xlh75hSxCxTAQAIzI8YNY9a5R3/1e4D7igcCvgDk1i
F/ud/SR/1kNttlR8lWrNd+HETzNVqJIx86NJlg82atHxZ9y/cN62PzhKuCtRy5JB
aYIcvi2IWUJknAUTC7sXck1ZHpnUfYZJHC953UAc/iVXWkVmhompkes=
-----END CERTIFICATE-----
